target datalayout = "e-m:e-p270:32:32-p271:32:32-p272:64:64-i64:64-i128:128-f80:128-n8:16:32:64-S128"
target triple = "x86_64-pc-linux-gnu"

%struct.darktable_t = type { %struct.dt_codepath_t, i32, i32, ptr, ptr, ptr, ptr, ptr, ptr, ptr, ptr, ptr, ptr, ptr, ptr, ptr, ptr, ptr, ptr, ptr, ptr, ptr, ptr, ptr, ptr, ptr, ptr, ptr, ptr, ptr, [64 x %struct.dt_pthread_mutex_t], %struct.dt_pthread_mutex_t, %struct.dt_pthread_mutex_t, %struct.dt_pthread_mutex_t, %struct.dt_pthread_mutex_t, %struct.dt_pthread_mutex_t, ptr, ptr, ptr, ptr, ptr, ptr, ptr, ptr, ptr, ptr, ptr, ptr, ptr, %struct.dt_lua_state_t, ptr, double, ptr, i32, [47 x i32], i32, i32, ptr, ptr, %struct.dt_sys_resources_t, %struct.dt_backthumb_t, %struct.dt_gimp_t }
%struct.dt_codepath_t = type { i8, [3 x i8] }
%struct.dt_pthread_mutex_t = type { %union.pthread_mutex_t }
%union.pthread_mutex_t = type { %struct.__pthread_mutex_s }
%struct.__pthread_mutex_s = type { i32, i32, i32, i32, i32, i16, i16, %struct.__pthread_internal_list }
%struct.__pthread_internal_list = type { ptr, ptr }
%struct.dt_lua_state_t = type { i32 }
%struct.dt_sys_resources_t = type { i64, i64, ptr, ptr, i32 }
%struct.dt_backthumb_t = type { double, double, i32, i32, i32, i32 }
%struct.dt_gimp_t = type { i32, ptr, ptr, i32, i32 }

@darktable = external global %struct.darktable_t, align 8
@.str = private unnamed_addr constant [24 x i8] c"0001-01-01 00:00:00.000\00", align 1
@.str.3 = private unnamed_addr constant [18 x i8] c"%Y:%m:%d %H:%M:%S\00", align 1
@.str.4 = private unnamed_addr constant [4 x i8] c"now\00", align 1
@.str.6 = private unnamed_addr constant [9 x i8] c"%s%s%03d\00", align 1
@.str.7 = private unnamed_addr constant [2 x i8] c".\00", align 1

; Function Attrs: nounwind uwtable
define internal ptr @_datetime_append_msec(ptr noundef %0, ptr noundef %1) #0 {
  %3 = alloca ptr, align 8
  %4 = alloca ptr, align 8
  store ptr %0, ptr %3, align 8, !tbaa !60
  store ptr %1, ptr %4, align 8, !tbaa !51
  %5 = load ptr, ptr %3, align 8, !tbaa !60
  %6 = load ptr, ptr %4, align 8, !tbaa !51
  %7 = call i32 @g_date_time_get_microsecond(ptr noundef %6)
  %8 = sitofp i32 %7 to double
  %9 = fmul reassoc nsz arcp contract afn double %8, 1.000000e-03
  %10 = fptosi double %9 to i32
  %11 = call noalias ptr (ptr, ...) @g_strdup_printf(ptr noundef @.str.6, ptr noundef %5, ptr noundef @.str.7, i32 noundef %10)
  ret ptr %11
}

; Function Attrs: nounwind uwtable
define i32 @dt_datetime_gdatetime_to_exif(ptr noundef %0, i64 noundef %1, ptr noundef %2) #0 {
  %4 = alloca i32, align 4
  %5 = alloca ptr, align 8
  %6 = alloca i64, align 8
  %7 = alloca ptr, align 8
  %8 = alloca ptr, align 8
  %9 = alloca ptr, align 8
  %10 = alloca i32, align 4
  store ptr %0, ptr %5, align 8, !tbaa !60
  store i64 %1, ptr %6, align 8, !tbaa !67
  store ptr %2, ptr %7, align 8, !tbaa !51
  %11 = load ptr, ptr %5, align 8, !tbaa !60
  %12 = icmp ne ptr %11, null
  br i1 %12, label %13, label %19

13:                                               ; preds = %3
  %14 = load i64, ptr %6, align 8, !tbaa !67
  %15 = icmp ne i64 %14, 0
  br i1 %15, label %16, label %19

16:                                               ; preds = %13
  %17 = load ptr, ptr %7, align 8, !tbaa !51
  %18 = icmp ne ptr %17, null
  br i1 %18, label %20, label %19

19:                                               ; preds = %16, %13, %3
  store i32 0, ptr %4, align 4
  br label %44

20:                                               ; preds = %16
  %21 = load ptr, ptr %5, align 8, !tbaa !60
  %22 = getelementptr inbounds i8, ptr %21, i64 0
  store i8 0, ptr %22, align 1, !tbaa !61
  call void @llvm.lifetime.start.p0(i64 8, ptr %8) #7
  %23 = load ptr, ptr %7, align 8, !tbaa !51
  %24 = call noalias ptr @g_date_time_format(ptr noundef %23, ptr noundef @.str.3)
  store ptr %24, ptr %8, align 8, !tbaa !60
  %25 = load ptr, ptr %8, align 8, !tbaa !60
  %26 = icmp ne ptr %25, null
  br i1 %26, label %27, label %42

27:                                               ; preds = %20
  %28 = load i64, ptr %6, align 8, !tbaa !67
  %29 = icmp eq i64 %28, 24
  br i1 %29, label %30, label %36

30:                                               ; preds = %27
  call void @llvm.lifetime.start.p0(i64 8, ptr %9) #7
  %31 = load ptr, ptr %8, align 8, !tbaa !60
  %32 = load ptr, ptr %7, align 8, !tbaa !51
  %33 = call ptr @_datetime_append_msec(ptr noundef %31, ptr noundef %32)
  store ptr %33, ptr %9, align 8, !tbaa !60
  %34 = load ptr, ptr %8, align 8, !tbaa !60
  call void @g_free(ptr noundef %34)
  %35 = load ptr, ptr %9, align 8, !tbaa !60
  store ptr %35, ptr %8, align 8, !tbaa !60
  call void @llvm.lifetime.end.p0(i64 8, ptr %9) #7
  br label %36

36:                                               ; preds = %30, %27
  %37 = load ptr, ptr %5, align 8, !tbaa !60
  %38 = load ptr, ptr %8, align 8, !tbaa !60
  %39 = load i64, ptr %6, align 8, !tbaa !67
  %40 = call i64 @g_strlcpy(ptr noundef %37, ptr noundef %38, i64 noundef %39)
  %41 = load ptr, ptr %8, align 8, !tbaa !60
  call void @g_free(ptr noundef %41)
  store i32 1, ptr %4, align 4
  store i32 1, ptr %10, align 4
  br label %43

42:                                               ; preds = %20
  store i32 0, ptr %4, align 4
  store i32 1, ptr %10, align 4
  br label %43

43:                                               ; preds = %42, %36
  call void @llvm.lifetime.end.p0(i64 8, ptr %8) #7
  br label %44

44:                                               ; preds = %43, %19
  %45 = load i32, ptr %4, align 4
  ret i32 %45
}

; Function Attrs: nounwind uwtable
define void @dt_datetime_now_to_exif(ptr noundef %0) #0 {
  %2 = alloca ptr, align 8
  %3 = alloca ptr, align 8
  store ptr %0, ptr %2, align 8, !tbaa !60
  %4 = load ptr, ptr %2, align 8, !tbaa !60
  %5 = icmp ne ptr %4, null
  br i1 %5, label %7, label %6

6:                                                ; preds = %1
  br label %19

7:                                                ; preds = %1
  %8 = load ptr, ptr %2, align 8, !tbaa !60
  %9 = getelementptr inbounds i8, ptr %8, i64 0
  store i8 0, ptr %9, align 1, !tbaa !61
  call void @llvm.lifetime.start.p0(i64 8, ptr %3) #7
  %10 = call ptr @g_date_time_new_now_local()
  store ptr %10, ptr %3, align 8, !tbaa !51
  %11 = load ptr, ptr %3, align 8, !tbaa !51
  %12 = icmp ne ptr %11, null
  br i1 %12, label %13, label %18

13:                                               ; preds = %7
  %14 = load ptr, ptr %2, align 8, !tbaa !60
  %15 = load ptr, ptr %3, align 8, !tbaa !51
  %16 = call i32 @dt_datetime_gdatetime_to_exif(ptr noundef %14, i64 noundef 20, ptr noundef %15)
  %17 = load ptr, ptr %3, align 8, !tbaa !51
  call void @g_date_time_unref(ptr noundef %17)
  br label %18

18:                                               ; preds = %13, %7
  call void @llvm.lifetime.end.p0(i64 8, ptr %3) #7
  br label %19

19:                                               ; preds = %18, %6
  ret void
}

; Function Attrs: nounwind uwtable
define i32 @dt_datetime_entry_to_exif(ptr noundef %0, i64 noundef %1, ptr noundef %2) #0 {
  %4 = alloca i32, align 4
  %5 = alloca ptr, align 8
  %6 = alloca i64, align 8
  %7 = alloca ptr, align 8
  %8 = alloca [24 x i8], align 16
  %9 = alloca ptr, align 8
  %10 = alloca i32, align 4
  %11 = alloca i32, align 4
  store ptr %0, ptr %5, align 8, !tbaa !60
  store i64 %1, ptr %6, align 8, !tbaa !67
  store ptr %2, ptr %7, align 8, !tbaa !60
  %12 = load ptr, ptr %5, align 8, !tbaa !60
  %13 = icmp ne ptr %12, null
  br i1 %13, label %14, label %17

14:                                               ; preds = %3
  %15 = load i64, ptr %6, align 8, !tbaa !67
  %16 = icmp ne i64 %15, 0
  br i1 %16, label %18, label %17

17:                                               ; preds = %14, %3
  store i32 0, ptr %4, align 4
  br label %54

18:                                               ; preds = %14
  %19 = load ptr, ptr %5, align 8, !tbaa !60
  %20 = getelementptr inbounds i8, ptr %19, i64 0
  store i8 0, ptr %20, align 1, !tbaa !61
  %21 = load ptr, ptr %7, align 8, !tbaa !60
  %22 = call i32 @strcmp(ptr noundef %21, ptr noundef @.str.4) #8
  %23 = icmp eq i32 %22, 0
  br i1 %23, label %24, label %26

24:                                               ; preds = %18
  %25 = load ptr, ptr %5, align 8, !tbaa !60
  call void @dt_datetime_now_to_exif(ptr noundef %25)
  store i32 1, ptr %4, align 4
  br label %54

26:                                               ; preds = %18
  %27 = load ptr, ptr %7, align 8, !tbaa !60
  %28 = call i64 @strlen(ptr noundef %27) #8
  %29 = icmp ugt i64 %28, 23
  br i1 %29, label %30, label %31

30:                                               ; preds = %26
  store i32 0, ptr %4, align 4
  br label %54

31:                                               ; preds = %26
  call void @llvm.lifetime.start.p0(i64 24, ptr %8) #7
  %32 = getelementptr inbounds [24 x i8], ptr %8, i64 0, i64 0
  %33 = call i64 @g_strlcpy(ptr noundef %32, ptr noundef @.str, i64 noundef 24)
  %34 = getelementptr inbounds [24 x i8], ptr %8, i64 0, i64 0
  %35 = load ptr, ptr %7, align 8, !tbaa !60
  %36 = load ptr, ptr %7, align 8, !tbaa !60
  %37 = call i64 @strlen(ptr noundef %36) #8
  call void @llvm.memcpy.p0.p0.i64(ptr align 16 %34, ptr align 1 %35, i64 %37, i1 false)
  %38 = getelementptr inbounds [24 x i8], ptr %8, i64 0, i64 7
  store i8 45, ptr %38, align 1, !tbaa !61
  %39 = getelementptr inbounds [24 x i8], ptr %8, i64 0, i64 4
  store i8 45, ptr %39, align 4, !tbaa !61
  call void @llvm.lifetime.start.p0(i64 8, ptr %9) #7
  %40 = getelementptr inbounds [24 x i8], ptr %8, i64 0, i64 0
  %41 = load ptr, ptr getelementptr inbounds nuw (%struct.darktable_t, ptr @darktable, i32 0, i32 57), align 8, !tbaa !6
  %42 = call ptr @g_date_time_new_from_iso8601(ptr noundef %40, ptr noundef %41)
  store ptr %42, ptr %9, align 8, !tbaa !51
  %43 = load ptr, ptr %9, align 8, !tbaa !51
  %44 = icmp ne ptr %43, null
  br i1 %44, label %45, label %52

45:                                               ; preds = %31
  call void @llvm.lifetime.start.p0(i64 4, ptr %10) #7
  %46 = load ptr, ptr %5, align 8, !tbaa !60
  %47 = load i64, ptr %6, align 8, !tbaa !67
  %48 = load ptr, ptr %9, align 8, !tbaa !51
  %49 = call i32 @dt_datetime_gdatetime_to_exif(ptr noundef %46, i64 noundef %47, ptr noundef %48)
  store i32 %49, ptr %10, align 4, !tbaa !62
  %50 = load ptr, ptr %9, align 8, !tbaa !51
  call void @g_date_time_unref(ptr noundef %50)
  %51 = load i32, ptr %10, align 4, !tbaa !62
  store i32 %51, ptr %4, align 4
  store i32 1, ptr %11, align 4
  call void @llvm.lifetime.end.p0(i64 4, ptr %10) #7
  br label %53

52:                                               ; preds = %31
  store i32 0, ptr %4, align 4
  store i32 1, ptr %11, align 4
  br label %53

53:                                               ; preds = %52, %45
  call void @llvm.lifetime.end.p0(i64 8, ptr %9) #7
  call void @llvm.lifetime.end.p0(i64 24, ptr %8) #7
  br label %54

54:                                               ; preds = %53, %30, %24, %17
  %55 = load i32, ptr %4, align 4
  ret i32 %55
}