; Function Attrs: nounwind uwtable
define range(i32 0, 2) i32 @dt_datetime_entry_to_exif(ptr noundef %0, i64 noundef %1, ptr noundef readonly captures(none) %2) local_unnamed_addr #0 {
  %4 = alloca [24 x i8], align 16
  %5 = icmp ne ptr %0, null
  %6 = icmp ne i64 %1, 0
  %or.cond = and i1 %5, %6
  br i1 %or.cond, label %7, label %dt_datetime_now_to_exif.exit

7:                                                ; preds = %3
  store i8 0, ptr %0, align 1, !tbaa !57
  %8 = tail call i32 @strcmp(ptr noundef nonnull dereferenceable(1) %2, ptr noundef nonnull dereferenceable(4) @.str.4) #8
  %9 = icmp eq i32 %8, 0
  br i1 %9, label %10, label %16

10:                                               ; preds = %7
  %11 = tail call ptr @g_date_time_new_now_local() #7
  %.not7.i = icmp eq ptr %11, null
  br i1 %.not7.i, label %dt_datetime_now_to_exif.exit, label %12

12:                                               ; preds = %10
  store i8 0, ptr %0, align 1, !tbaa !57
  %13 = tail call noalias ptr @g_date_time_format(ptr noundef nonnull %11, ptr noundef nonnull @.str.3) #7
  %.not.i.i = icmp eq ptr %13, null
  br i1 %.not.i.i, label %dt_datetime_gdatetime_to_exif.exit.i, label %14

14:                                               ; preds = %12
  %15 = tail call i64 @g_strlcpy(ptr noundef nonnull %0, ptr noundef nonnull %13, i64 noundef 20) #7
  tail call void @g_free(ptr noundef nonnull %13) #7
  br label %dt_datetime_gdatetime_to_exif.exit.i

dt_datetime_gdatetime_to_exif.exit.i:             ; preds = %14, %12
  tail call void @g_date_time_unref(ptr noundef nonnull %11) #7
  br label %dt_datetime_now_to_exif.exit

16:                                               ; preds = %7
  %17 = tail call i64 @strlen(ptr noundef nonnull dereferenceable(1) %2) #8
  %18 = icmp ugt i64 %17, 23
  br i1 %18, label %dt_datetime_now_to_exif.exit, label %19

19:                                               ; preds = %16
  call void @llvm.lifetime.start.p0(i64 24, ptr nonnull %4) #7
  %20 = call i64 @g_strlcpy(ptr noundef nonnull %4, ptr noundef nonnull @__const.dt_datetime_exif_to_numbers.sdt, i64 noundef 24) #7
  %21 = call i64 @strlen(ptr noundef nonnull dereferenceable(1) %2) #8
  call void @llvm.memcpy.p0.p0.i64(ptr nonnull align 16 %4, ptr nonnull align 1 %2, i64 %21, i1 false)
  %22 = getelementptr inbounds nuw i8, ptr %4, i64 7
  store i8 45, ptr %22, align 1, !tbaa !57
  %23 = getelementptr inbounds nuw i8, ptr %4, i64 4
  store i8 45, ptr %23, align 4, !tbaa !57
  %24 = load ptr, ptr getelementptr inbounds nuw (i8, ptr @darktable, i64 3328), align 8, !tbaa !6
  %25 = call ptr @g_date_time_new_from_iso8601(ptr noundef nonnull %4, ptr noundef %24) #7
  %.not = icmp eq ptr %25, null
  br i1 %.not, label %38, label %26

26:                                               ; preds = %19
  store i8 0, ptr %0, align 1, !tbaa !57
  %27 = call noalias ptr @g_date_time_format(ptr noundef nonnull %25, ptr noundef nonnull @.str.3) #7
  %.not.i18 = icmp eq ptr %27, null
  br i1 %.not.i18, label %dt_datetime_gdatetime_to_exif.exit, label %28

28:                                               ; preds = %26
  %29 = icmp eq i64 %1, 24
  br i1 %29, label %30, label %36

30:                                               ; preds = %28
  %31 = call i32 @g_date_time_get_microsecond(ptr noundef nonnull %25) #7
  %32 = sitofp i32 %31 to double
  %33 = fmul reassoc nsz arcp contract afn double %32, 1.000000e-03
  %34 = fptosi double %33 to i32
  %35 = call noalias ptr (ptr, ...) @g_strdup_printf(ptr noundef nonnull @.str.6, ptr noundef nonnull %27, ptr noundef nonnull @.str.7, i32 noundef %34) #7
  call void @g_free(ptr noundef nonnull %27) #7
  br label %36

36:                                               ; preds = %30, %28
  %.018.i = phi ptr [ %35, %30 ], [ %27, %28 ]
  %37 = call i64 @g_strlcpy(ptr noundef nonnull %0, ptr noundef %.018.i, i64 noundef %1) #7
  call void @g_free(ptr noundef %.018.i) #7
  br label %dt_datetime_gdatetime_to_exif.exit

dt_datetime_gdatetime_to_exif.exit:               ; preds = %26, %36
  %.0.i = phi i32 [ 1, %36 ], [ 0, %26 ]
  call void @g_date_time_unref(ptr noundef nonnull %25) #7
  br label %38

38:                                               ; preds = %19, %dt_datetime_gdatetime_to_exif.exit
  %.1 = phi i32 [ %.0.i, %dt_datetime_gdatetime_to_exif.exit ], [ 0, %19 ]
  call void @llvm.lifetime.end.p0(i64 24, ptr nonnull %4) #7
  br label %dt_datetime_now_to_exif.exit

dt_datetime_now_to_exif.exit:                     ; preds = %dt_datetime_gdatetime_to_exif.exit.i, %10, %16, %3, %38
  %.0 = phi i32 [ %.1, %38 ], [ 0, %3 ], [ 0, %16 ], [ 1, %10 ], [ 1, %dt_datetime_gdatetime_to_exif.exit.i ]
  ret i32 %.0
}